Certificate:
    Data:
        Version: 3 (0x2)
        Serial Number:
            e5:ae:54:78:cf:f2:4b:0b
        Signature Algorithm: md5WithRSAEncryption
        Issuer: C=US, ST=CA, O=KPNGHM, OU=VCAS, CN=VCA.verimatrix.com/emailAddress=VCA.kenny.warman@divitel.com
        Validity
            Not Before: Jul 28 07:22:54 2017 GMT
            Not After : Jul 28 07:22:54 2027 GMT
        Subject: C=US, ST=CA, O=KPNGHM, OU=VCAS, CN=VCA.verimatrix.com/emailAddress=VCA.kenny.warman@divitel.com
        Subject Public Key Info:
            Public Key Algorithm: rsaEncryption
            RSA Public Key: (1024 bit)
                Modulus (1024 bit):
                    00:c2:74:a3:63:1b:40:98:b3:10:cb:6b:40:0c:c9:
                    32:1c:83:2e:af:48:5b:38:d5:fc:ea:7d:22:fe:10:
                    19:90:10:96:f2:e0:e8:7c:b1:be:9d:c5:dd:6c:1e:
                    f2:0b:35:2e:e0:9e:55:0b:d1:0e:8b:08:c9:e1:86:
                    0d:5d:5a:6b:3c:cf:b9:70:06:3d:20:1a:6a:0e:f2:
                    4e:16:f2:46:b7:82:aa:97:5c:7f:6e:ca:d2:23:d7:
                    d9:a3:46:dc:0c:8a:ae:22:37:04:89:86:c9:e1:8e:
                    7a:03:35:02:2f:c9:7a:10:e7:ee:f4:f8:28:9e:0a:
                    c1:72:6f:23:92:83:7b:2a:a3
                Exponent: 65537 (0x10001)
        X509v3 extensions:
            X509v3 Basic Constraints: critical
                CA:TRUE, pathlen:0
            X509v3 Subject Key Identifier: 
                14:F3:6E:22:24:B1:E7:8B:C8:D9:75:5E:DE:A8:1A:0D:C2:FD:46:6D
            X509v3 Authority Key Identifier: 
                keyid:14:F3:6E:22:24:B1:E7:8B:C8:D9:75:5E:DE:A8:1A:0D:C2:FD:46:6D
                DirName:/C=US/ST=CA/O=KPNGHM/OU=VCAS/CN=VCA.verimatrix.com/emailAddress=VCA.kenny.warman@divitel.com
                serial:E5:AE:54:78:CF:F2:4B:0B

            X509v3 Key Usage: critical
                Certificate Sign, CRL Sign
    Signature Algorithm: md5WithRSAEncryption
        88:f4:c2:cc:a4:e1:be:57:25:fe:48:55:65:30:6d:62:df:52:
        c0:f7:70:2b:42:58:77:9c:52:29:8a:e6:eb:42:ac:0f:52:ae:
        00:2c:b6:f3:11:24:1b:c9:94:6e:34:dc:bc:2c:46:76:f3:f3:
        01:5f:27:08:69:79:e7:38:07:fb:e6:2e:8a:60:55:86:23:af:
        ce:b2:7b:e5:7e:23:40:37:e9:e3:13:0c:db:ec:61:96:97:ce:
        7d:79:f1:78:39:80:2d:32:04:01:74:66:be:ff:1c:c0:de:50:
        a4:fc:5d:c2:c2:91:be:7f:57:24:ca:c1:4b:1e:c9:b4:76:2e:
        8a:ba
-----BEGIN CERTIFICATE-----
MIIDjDCCAvWgAwIBAgIJAOWuVHjP8ksLMA0GCSqGSIb3DQEBBAUAMIGEMQswCQYD
VQQGEwJVUzELMAkGA1UECAwCQ0ExDzANBgNVBAoMBktQTkdITTENMAsGA1UECwwE
VkNBUzEbMBkGA1UEAwwSVkNBLnZlcmltYXRyaXguY29tMSswKQYJKoZIhvcNAQkB
FhxWQ0Eua2Vubnkud2FybWFuQGRpdml0ZWwuY29tMB4XDTE3MDcyODA3MjI1NFoX
DTI3MDcyODA3MjI1NFowgYQxCzAJBgNVBAYTAlVTMQswCQYDVQQIDAJDQTEPMA0G
A1UECgwGS1BOR0hNMQ0wCwYDVQQLDARWQ0FTMRswGQYDVQQDDBJWQ0EudmVyaW1h
dHJpeC5jb20xKzApBgkqhkiG9w0BCQEWHFZDQS5rZW5ueS53YXJtYW5AZGl2aXRl
bC5jb20wgZ8wDQYJKoZIhvcNAQEBBQADgY0AMIGJAoGBAMJ0o2MbQJizEMtrQAzJ
MhyDLq9IWzjV/Op9Iv4QGZAQlvLg6Hyxvp3F3Wwe8gs1LuCeVQvRDosIyeGGDV1a
azzPuXAGPSAaag7yThbyRreCqpdcf27K0iPX2aNG3AyKriI3BImGyeGOegM1Ai/J
ehDn7vT4KJ4KwXJvI5KDeyqjAgMBAAGjggECMIH/MBIGA1UdEwEB/wQIMAYBAf8C
AQAwHQYDVR0OBBYEFBTzbiIkseeLyNl1Xt6oGg3C/UZtMIG5BgNVHSMEgbEwga6A
FBTzbiIkseeLyNl1Xt6oGg3C/UZtoYGKpIGHMIGEMQswCQYDVQQGEwJVUzELMAkG
A1UECAwCQ0ExDzANBgNVBAoMBktQTkdITTENMAsGA1UECwwEVkNBUzEbMBkGA1UE
AwwSVkNBLnZlcmltYXRyaXguY29tMSswKQYJKoZIhvcNAQkBFhxWQ0Eua2Vubnku
d2FybWFuQGRpdml0ZWwuY29tggkA5a5UeM/ySwswDgYDVR0PAQH/BAQDAgEGMA0G
CSqGSIb3DQEBBAUAA4GBAIj0wsyk4b5XJf5IVWUwbWLfUsD3cCtCWHecUimK5utC
rA9SrgAstvMRJBvJlG403LwsRnbz8wFfJwhpeec4B/vmLopgVYYjr86ye+V+I0A3
6eMTDNvsYZaXzn158Xg5gC0yBAF0Zr7/HMDeUKT8XcLCkb5/VyTKwUseybR2Loq6
-----END CERTIFICATE-----
